(lp0
(lp1
I19
aF3.21868
aI6
aI6
aI1
aI1
aI0
aI102
aI5
aa(lp2
I21
aF8.0467
aI5
aI6
aI1
aI0
aI0
aI15
aI6
aa(lp3
I19
aF9.65604
aI8
aI6
aI1
aI0
aI1
aI108
aI5
aa(lp4
I19
aF11.26538
aI5
aI6
aI0
aI0
aI0
aI93
aI5
aa(lp5
I19
aF83.68568
aI7
aI6
aI0
aI0
aI0
aI48
aI3
aa(lp6
I19
aF6828.42962
aI3
aI6
aI0
aI0
aI0
aI75
aI4
aa(lp7
I19
aF1.60934
aI8
aI6
aI1
aI1
aI1
aI54
aI6
aa(lp8
I19
aF3.21868
aI4
aI6
aI1
aI1
aI0
aI31
aI5
aa(lp9
I19
aF16.0934
aI6
aI6
aI1
aI0
aI1
aI305
aI6
aa(lp10
I19
aF1.60934
aI4
aI6
aI1
aI1
aI0
aI119
aI6
aa(lp11
I19
aF1.60934
aI5
aI6
aI1
aI1
aI0
aI160
aI6
aa(lp12
I19
aF45.06152
aI5
aI6
aI1
aI0
aI0
aI0
aI5
aa(lp13
I18
aF54.71756
aI6
aI6
aI1
aI0
aI0
aI129
aI6
aa(lp14
I18
aF12.87472
aI5
aI6
aI0
aI0
aI0
aI18
aI5
aa(lp15
I18
aF49.88954
aI5
aI6
aI0
aI0
aI0
aI205
aI7
aa(lp16
I110
aF53.10822
aI2
aI6
aI0
aI0
aI1
aI339
aI6
aa(lp17
I18
aF64.3736
aI6
aI6
aI1
aI0
aI0
aI34
aI6
aa(lp18
I20
aF19.31208
aI6
aI6
aI1
aI1
aI0
aI0
aI5
aa(lp19
I19
aF955.94796
aI6
aI6
aI1
aI1
aI1
aI0
aI4
aa(lp20
I21
aF16.0934
aI3
aI6
aI1
aI0
aI0
aI22
aI5
aa(lp21
I18
aF33.79614
aI8
aI6
aI1
aI0
aI1
aI184
aI5
aa(lp22
I21
aF102.99776
aI5
aI6
aI1
aI0
aI1
aI296
aI4
aa(lp23
I20
aF1.60934
aI7
aI6
aI1
aI1
aI0
aI123
aI6
aa(lp24
I18
aF6.43736
aI6
aI6
aI0
aI0
aI0
aI0
aI5
aa(lp25
I20
aF30.57746
aI8
aI6
aI0
aI0
aI1
aI53
aI3
aa(lp26
I22
aF30.57746
aI5
aI6
aI1
aI0
aI1
aI32
aI6
aa(lp27
I19
aF17.70274
aI8
aI6
aI1
aI1
aI0
aI183
aI6
aa(lp28
I21
aF3.21868
aI6
aI6
aI1
aI1
aI0
aI75
aI6
aa(lp29
I19
aF3.21868
aI8
aI6
aI1
aI1
aI0
aI0
aI1
aa(lp30
I20
aF3.21868
aI5
aI6
aI1
aI1
aI0
aI55
aI5
aa(lp31
I22
aF6.43736
aI6
aI6
aI0
aI0
aI0
aI141
aI6
aa(lp32
I22
aF3.21868
aI6
aI6
aI1
aI1
aI0
aI0
aI5
aa(lp33
I25
aF49.88954
aI4
aI6
aI0
aI0
aI0
aI95
aI4
aa(lp34
I20
aF8.0467
aI4
aI6
aI1
aI0
aI0
aI75
aI7
aa(lp35
I19
aF3.21868
aI7
aI6
aI1
aI1
aI0
aI49
aI6
aa(lp36
I18
aF1179.64622
aI6
aI6
aI0
aI0
aI1
aI195
aI6
aa(lp37
I22
aF37.01482
aI5
aI6
aI1
aI0
aI0
aI246
aI6
aa(lp38
I19
aF101.38842
aI6
aI6
aI0
aI0
aI0
aI240
aI6
aa(lp39
I19
aF3.21868
aI5
aI6
aI1
aI1
aI1
aI46
aI6
aa(lp40
I18
aF69.20162
aI6
aI6
aI1
aI0
aI0
aI110
aI6
aa(lp41
I18
aF17.70274
aI5
aI6
aI1
aI0
aI0
aI93
aI5
aa(lp42
I20
aF3.21868
aI6
aI6
aI1
aI1
aI0
aI79
aI3
aa(lp43
I18
aF37.01482
aI3
aI6
aI0
aI0
aI0
aI7
aI4
aa(lp44
I18
aF45.06152
aI5
aI6
aI0
aI0
aI0
aI116
aI6
aa(lp45
I20
aF41.84284
aI8
aI6
aI1
aI0
aI0
aI220
aI6
aa(lp46
I19
aF19.31208
aI4
aI6
aI1
aI1
aI0
aI0
aI5
aa(lp47
I19
aF20.92142
aI7
aI6
aI0
aI0
aI1
aI495
aI6
aa(lp48
I20
aF8.0467
aI5
aI6
aI1
aI0
aI0
aI35
aI6
aa(lp49
I18
aF16.0934
aI4
aI6
aI1
aI0
aI0
aI0
aI6
aa(lp50
I20
aF16.0934
aI7
aI6
aI0
aI0
aI0
aI32
aI2
aa(lp51
I18
aF13362.35002
aI5
aI6
aI0
aI0
aI0
aI290
aI6
aa(lp52
I20
aF12.87472
aI5
aI6
aI1
aI0
aI1
aI33
aI5
aa(lp53
I19
aF106.21644
aI6
aI6
aI0
aI0
aI0
aI97
aI5
aa(lp54
I20
aF20.92142
aI5
aI6
aI1
aI0
aI1
aI36
aI5
aa(lp55
I19
aF1.60934
aI3
aI6
aI1
aI1
aI0
aI125
aI6
aa(lp56
I20
aF104.6071
aI6
aI6
aI0
aI0
aI0
aI82
aI6
aa(lp57
I18
aF59.54558
aI6
aI6
aI1
aI0
aI0
aI17
aI6
aa(lp58
I19
aF3.21868
aI5
aI6
aI0
aI0
aI1
aI60
aI5
aa(lp59
I19
aF11.26538
aI5
aI6
aI1
aI0
aI0
aI0
aI5
aa(lp60
I18
aF2785.76754
aI3
aI6
aI0
aI0
aI0
aI147
aI6
aa(lp61
I20
aF2772.89282
aI6
aI6
aI1
aI0
aI0
aI0
aI3
aa(lp62
I21
aF2771.28348
aI5
aI6
aI1
aI0
aI0
aI0
aI5
aa(lp63
I18
aF2768.0648
aI4
aI6
aI1
aI0
aI0
aI8
aI5
aa(lp64
I19
aF2777.72084
aI6
aI6
aI0
aI0
aI0
aI0
aI4
aa(lp65
I18
aF2768.0648
aI5
aI6
aI0
aI0
aI0
aI79
aI3
aa(lp66
I24
aF2785.76754
aI6
aI6
aI1
aI0
aI0
aI231
aI4
aa(lp67
I21
aF2788.98622
aI4
aI6
aI1
aI0
aI0
aI0
aI4
aa(lp68
I19
aF2776.1115
aI6
aI6
aI0
aI0
aI0
aI405
aI6
aa(lp69
I19
aF1.60934
aI6
aI6
aI0
aI0
aI0
aI0
aI4
aa(lp70
I19
aF9.65604
aI5
aI6
aI1
aI0
aI1
aI299
aI5
aa(lp71
I19
aF59.54558
aI4
aI6
aI2
aI0
aI0
aI427
aI6
aa(lp72
I20
aF6.43736
aI7
aI6
aI0
aI0
aI0
aI109
aI3
aa(lp73
I20
aF8.0467
aI6
aI6
aI1
aI0
aI0
aI42
aI3
aa(lp74
I23
aF798.23264
aI3
aI6
aI1
aI0
aI1
aI89
aI6
aa(lp75
I20
aF799.84198
aI6
aI6
aI1
aI0
aI1
aI0
aI6
aa(lp76
I21
aF798.23264
aI8
aI6
aI1
aI0
aI0
aI130
aI6
aa(lp77
I19
aF1226.31708
aI4
aI6
aI1
aI0
aI0
aI149
aI4
aa(lp78
I18
aF795.01396
aI6
aI6
aI1
aI0
aI0
aI15
aI4
aa(lp79
I22
aF799.84198
aI6
aI6
aI1
aI0
aI1
aI40
aI6
aa(lp80
I18
aF1110.4446
aI8
aI6
aI0
aI0
aI1
aI89
aI6
aa(lp81
I22
aF1314.83078
aI4
aI6
aI0
aI0
aI0
aI51
aI4
aa(lp82
I21
aF70.81096
aI8
aI6
aI1
aI0
aI0
aI29
aI4
aa(lp83
I19
aF1356.67362
aI6
aI6
aI0
aI0
aI0
aI167
aI5
aa(lp84
I20
aF6871.8818
aI8
aI6
aI1
aI0
aI0
aI302
aI6
aa(lp85
I20
aF1366.32966
aI5
aI6
aI1
aI0
aI1
aI126
aI6
aa(lp86
I21
aF1414.60986
aI5
aI6
aI0
aI0
aI0
aI30
aI5
aa(lp87
I23
aF1308.39342
aI7
aI6
aI1
aI0
aI1
aI0
aI6
aa(lp88
I19
aF8.0467
aI7
aI6
aI1
aI0
aI0
aI43
aI4
aa(lp89
I18
aF35.40548
aI6
aI6
aI0
aI0
aI0
aI156
aI6
aa(lp90
I19
aF85.29502
aI6
aI6
aI1
aI0
aI1
aI123
aI5
aa(lp91
I19
aF35.40548
aI14
aI6
aI1
aI0
aI0
aI219
aI6
aa(lp92
I20
aF38.62416
aI6
aI6
aI0
aI0
aI1
aI414
aI6
aa(lp93
I20
aF1.60934
aI6
aI6
aI1
aI1
aI0
aI158
aI3
aa(lp94
I19
aF41.84284
aI6
aI6
aI1
aI0
aI1
aI41
aI3
aa(lp95
I21
aF67.59228
aI6
aI6
aI1
aI0
aI0
aI71
aI6
aa(lp96
I20
aF416.81906
aI3
aI6
aI1
aI0
aI0
aI37
aI6
aa(lp97
I20
aF32.1868
aI8
aI6
aI1
aI0
aI0
aI13
aI5
aa(lp98
I22
aF8.0467
aI6
aI6
aI2
aI0
aI0
aI65
aI6
aa(lp99
I20
aF8.0467
aI7
aI6
aI1
aI0
aI1
aI36
aI6
aa(lp100
I19
aF9.65604
aI7
aI6
aI1
aI0
aI0
aI31
aI6
aa(lp101
I19
aF51.49888
aI4
aI6
aI0
aI0
aI0
aI26
aI4
aa(lp102
I19
aF11.26538
aI8
aI6
aI0
aI0
aI0
aI84
aI6
aa(lp103
I20
aF14.48406
aI6
aI6
aI1
aI0
aI0
aI0
aI6
aa(lp104
I18
aF128.7472
aI4
aI6
aI0
aI0
aI0
aI214
aI4
aa(lp105
I21
aF12.87472
aI4
aI6
aI1
aI0
aI0
aI38
aI6
aa(lp106
I20
aF22.53076
aI7
aI6
aI1
aI0
aI0
aI0
aI3
aa(lp107
I18
aF30.57746
aI6
aI6
aI0
aI0
aI0
aI38
aI3
aa(lp108
I19
aF20.92142
aI4
aI6
aI1
aI0
aI0
aI2
aI6
aa(lp109
I19
aF17.70274
aI8
aI6
aI1
aI0
aI0
aI267
aI6
aa(lp110
I18
aF46.67086
aI5
aI6
aI0
aI0
aI0
aI328
aI6
aa(lp111
I20
aF28.96812
aI5
aI6
aI0
aI0
aI0
aI35
aI6
aa(lp112
I19
aF1.60934
aI8
aI6
aI1
aI1
aI0
aI24
aI3
aa(lp113
I20
aF53.10822
aI6
aI6
aI1
aI0
aI1
aI195
aI6
aa(lp114
I20
aF263.93176
aI6
aI6
aI0
aI0
aI1
aI0
aI4
aa(lp115
I21
aF16.0934
aI8
aI6
aI1
aI0
aI1
aI49
aI3
aa(lp116
I19
aF59.54558
aI7
aI6
aI1
aI0
aI0
aI67
aI5
aa(lp117
I19
aF1306.78408
aI4
aI6
aI0
aI0
aI1
aI40
aI6
aa(lp118
I21
aF25.74944
aI5
aI6
aI0
aI0
aI0
aI0
aI6
aa(lp119
I18
aF20.92142
aI7
aI6
aI1
aI0
aI0
aI51
aI6
aa(lp120
I21
aF6.43736
aI9
aI6
aI0
aI0
aI0
aI44
aI3
aa(lp121
I20
aF17.70274
aI7
aI6
aI1
aI0
aI0
aI48
aI6
aa(lp122
I21
aF3.21868
aI8
aI6
aI1
aI1
aI0
aI38
aI5
aa(lp123
I19
aF24.1401
aI6
aI6
aI0
aI0
aI0
aI193
aI6
aa(lp124
I18
aF62.76426
aI4
aI6
aI0
aI0
aI0
aI39
aI5
aa(lp125
I20
aF8.0467
aI6
aI6
aI0
aI0
aI0
aI0
aI6
aa(lp126
I23
aF14.48406
aI13
aI6
aI1
aI0
aI1
aI12
aI5
aa(lp127
I19
aF24.1401
aI7
aI6
aI1
aI0
aI0
aI24
aI6
aa(lp128
I19
aF70.81096
aI6
aI6
aI1
aI0
aI1
aI23
aI6
aa(lp129
I21
aF19.31208
aI3
aI6
aI1
aI0
aI0
aI0
aI4
aa(lp130
I20
aF4.82802
aI5
aI6
aI1
aI0
aI1
aI37
aI5
aa(lp131
I23
aF32.1868
aI5
aI6
aI0
aI0
aI0
aI0
aI5
aa(lp132
I21
aF22.53076
aI8
aI6
aI2
aI0
aI0
aI36
aI6
aa(lp133
I22
aF3.21868
aI5
aI6
aI1
aI1
aI0
aI0
aI4
aa(lp134
I19
aF4.82802
aI8
aI6
aI1
aI0
aI0
aI112
aI6
aa(lp135
I18
aF14.48406
aI9
aI6
aI1
aI0
aI0
aI52
aI5
aa(lp136
I20
aF3.21868
aI3
aI6
aI1
aI1
aI1
aI7
aI5
aa(lp137
I20
aF98.16974
aI4
aI6
aI1
aI0
aI0
aI166
aI6
aa(lp138
I18
aF43.45218
aI5
aI6
aI1
aI0
aI0
aI8
aI6
aa(lp139
I25
aF112.6538
aI4
aI6
aI0
aI0
aI1
aI363
aI6
aa(lp140
I19
aF9.65604
aI7
aI6
aI0
aI0
aI0
aI33
aI2
aa(lp141
I22
aF8.0467
aI7
aI6
aI1
aI0
aI1
aI61
aI4
aa(lp142
I19
aF1.60934
aI7
aI6
aI1
aI1
aI1
aI74
aI4
aa(lp143
I20
aF127.13786
aI6
aI6
aI1
aI0
aI0
aI0
aI6
aa(lp144
I21
aF7657.23972
aI5
aI6
aI1
aI0
aI0
aI56
aI5
aa(lp145
I21
aF8.0467
aI9
aI6
aI1
aI0
aI1
aI3
aI6
aa(lp146
I20
aF4.82802
aI6
aI6
aI1
aI0
aI1
aI172
aI6
aa(lp147
I18
aF12.87472
aI7
aI6
aI1
aI0
aI0
aI124
aI6
aa(lp148
I21
aF439.34982
aI6
aI6
aI0
aI0
aI0
aI0
aI4
aa(lp149
I21
aF8.0467
aI8
aI6
aI0
aI0
aI0
aI99
aI4
aa(lp150
I21
aF1488.6395
aI4
aI6
aI1
aI0
aI1
aI233
aI4
aa(lp151
I21
aF70.81096
aI4
aI6
aI1
aI0
aI0
aI205
aI6
aa(lp152
I33
aF32.1868
aI6
aI6
aI0
aI0
aI0
aI315
aI6
aa(lp153
I26
aF144.8406
aI4
aI6
aI0
aI0
aI0
aI57
aI4
aa(lp154
I18
aF3.21868
aI6
aI6
aI1
aI1
aI0
aI120
aI6
aa(lp155
I21
aF9.65604
aI5
aI6
aI0
aI0
aI0
aI0
aI5
aa(lp156
I20
aF14.48406
aI5
aI6
aI1
aI0
aI0
aI0
aI3
aa(lp157
I19
aF12.87472
aI4
aI6
aI1
aI0
aI1
aI183
aI6
aa(lp158
I20
aF8.0467
aI9
aI6
aI1
aI0
aI0
aI0
aI5
aa(lp159
I19
aF3.21868
aI6
aI6
aI1
aI1
aI1
aI29
aI6
aa(lp160
I18
aF14.48406
aI6
aI6
aI0
aI0
aI0
aI48
aI6
aa(lp161
I19
aF74.02964
aI8
aI6
aI1
aI0
aI0
aI128
aI5
aa(lp162
I25
aF11.26538
aI8
aI6
aI0
aI0
aI0
aI65
aI6
aa(lp163
I18
aF51.49888
aI5
aI6
aI1
aI0
aI0
aI13
aI4
aa(lp164
I18
aF7607.35018
aI5
aI6
aI0
aI0
aI0
aI15
aI6
aa(lp165
I20
aF43.45218
aI7
aI6
aI1
aI0
aI0
aI108
aI6
aa(lp166
I19
aF48.2802
aI5
aI6
aI0
aI0
aI0
aI498
aI6
aa(lp167
I21
aF6.43736
aI5
aI6
aI0
aI0
aI0
aI262
aI5
aa(lp168
I19
aF24.1401
aI3
aI6
aI1
aI0
aI0
aI55
aI6
aa(lp169
I19
aF6.43736
aI3
aI6
aI1
aI0
aI0
aI62
aI4
aa(lp170
I21
aF963.99466
aI7
aI6
aI1
aI0
aI0
aI55
aI4
aa(lp171
I20
aF25.74944
aI5
aI6
aI1
aI0
aI0
aI175
aI6
aa(lp172
I19
aF19.31208
aI5
aI6
aI1
aI0
aI0
aI24
aI4
aa(lp173
I19
aF8.0467
aI6
aI6
aI0
aI0
aI0
aI25
aI5
aa(lp174
I18
aF16.0934
aI6
aI6
aI1
aI0
aI0
aI0
aI4
aa(lp175
I19
aF28.96812
aI7
aI6
aI0
aI0
aI1
aI0
aI6
aa(lp176
I18
aF17.70274
aI4
aI6
aI1
aI0
aI0
aI82
aI5
aa(lp177
I19
aF12.87472
aI4
aI6
aI1
aI0
aI0
aI65
aI6
aa(lp178
I19
aF14.48406
aI6
aI6
aI1
aI0
aI0
aI0
aI3
aa(lp179
I19
aF1150.6781
aI4
aI6
aI0
aI0
aI0
aI97
aI5
aa(lp180
I46
aF9.65604
aI9
aI6
aI0
aI0
aI0
aI498
aI6
aa(lp181
I20
aF1.60934
aI4
aI6
aI0
aI0
aI0
aI151
aI5
aa(lp182
I19
aF20.92142
aI3
aI6
aI1
aI0
aI0
aI124
aI6
aa(lp183
I19
aF33.79614
aI3
aI6
aI1
aI0
aI0
aI2
aI4
aa(lp184
I18
aF16.0934
aI4
aI6
aI1
aI0
aI0
aI0
aI6
aa(lp185
I21
aF11.26538
aI5
aI6
aI1
aI0
aI1
aI482
aI4
aa(lp186
I24
aF160.934
aI14
aI6
aI0
aI0
aI0
aI97
aI5
aa(lp187
I22
aF14.48406
aI7
aI6
aI0
aI0
aI0
aI0
aI4
aa(lp188
I20
aF17.70274
aI6
aI6
aI1
aI0
aI0
aI141
aI5
aa(lp189
I21
aF20.92142
aI4
aI6
aI0
aI0
aI0
aI0
aI6
aa(lp190
I19
aF8.0467
aI5
aI6
aI0
aI0
aI0
aI0
aI4
aa(lp191
I23
aF14.48406
aI9
aI6
aI1
aI1
aI0
aI0
aI5
aa(lp192
I18
aF6.43736
aI6
aI6
aI0
aI0
aI0
aI242
aI6
aa(lp193
I19
aF1.60934
aI8
aI6
aI1
aI1
aI0
aI47
aI4
aa(lp194
I20
aF16.0934
aI4
aI6
aI1
aI0
aI0
aI0
aI5
aa(lp195
I20
aF8.0467
aI4
aI6
aI1
aI0
aI1
aI33
aI5
aa(lp196
I21
aF57.93624
aI6
aI6
aI1
aI0
aI1
aI34
aI6
aa(lp197
I20
aF3.21868
aI6
aI6
aI1
aI1
aI0
aI168
aI6
aa(lp198
I22
aF4.82802
aI6
aI6
aI2
aI0
aI1
aI253
aI6
aa(lp199
I18
aF6.43736
aI6
aI6
aI0
aI0
aI0
aI25
aI6
aa(lp200
I21
aF6.43736
aI6
aI6
aI1
aI0
aI0
aI35
aI3
aa(lp201
I19
aI0
aI6
aI6
aI1
aI0
aI0
aI127
aI6
aa(lp202
I22
aF6.43736
aI7
aI6
aI1
aI0
aI0
aI115
aI6
aa(lp203
I21
aF62.76426
aI5
aI6
aI1
aI0
aI0
aI134
aI6
aa(lp204
I19
aF1.60934
aI9
aI6
aI1
aI1
aI0
aI257
aI4
aa(lp205
I22
aF30.57746
aI6
aI5
aI1
aI0
aI1
aI205
aI6
aa(lp206
I22
aF14.48406
aI6
aI5
aI1
aI0
aI0
aI52
aI5
aa(lp207
I22
aF59.54558
aI7
aI5
aI0
aI0
aI0
aI170
aI6
aa(lp208
I18
aF62.76426
aI5
aI5
aI0
aI0
aI1
aI232
aI6
aa(lp209
I20
aF40.2335
aI5
aI5
aI1
aI0
aI1
aI468
aI6
aa(lp210
I25
aF33.79614
aI6
aI5
aI1
aI0
aI1
aI311
aI6
aa(lp211
I18
aF65.98294
aI5
aI5
aI0
aI0
aI0
aI0
aI2
aa(lp212
I20
aF56.3269
aI6
aI5
aI2
aI0
aI0
aI28
aI6
aa(lp213
I21
aF67.59228
aI6
aI5
aI0
aI0
aI1
aI328
aI4
aa(lp214
I21
aF40.2335
aI6
aI5
aI1
aI0
aI0
aI0
aI6
aa(lp215
I22
aF25.74944
aI9
aI5
aI0
aI0
aI0
aI0
aI5
aa(lp216
I20
aF70.81096
aI4
aI5
aI1
aI0
aI0
aI0
aI4
aa(lp217
I21
aF41.84284
aI7
aI5
aI1
aI0
aI0
aI165
aI6
aa(lp218
I21
aF67.59228
aI7
aI5
aI1
aI0
aI1
aI0
aI5
aa(lp219
I28
aF53.10822
aI6
aI5
aI1
aI0
aI0
aI0
aI5
aa(lp220
I21
aF59.54558
aI6
aI5
aI1
aI0
aI1
aI153
aI6
aa(lp221
I19
aF64.3736
aI6
aI5
aI0
aI0
aI0
aI22
aI4
aa(lp222
I21
aF86.90436
aI7
aI5
aI1
aI0
aI1
aI0
aI3
aa(lp223
I18
aF32.1868
aI5
aI5
aI0
aI0
aI0
aI16
aI3
aa(lp224
I21
aF64.3736
aI6
aI5
aI1
aI0
aI1
aI25
aI6
aa(lp225
I18
aF12.87472
aI5
aI5
aI1
aI0
aI0
aI0
aI3
aa(lp226
I20
aF32.1868
aI5
aI5
aI1
aI0
aI0
aI0
aI4
aa(lp227
I20
aF53.10822
aI4
aI5
aI0
aI0
aI1
aI48
aI5
aa(lp228
I19
aF54.71756
aI7
aI5
aI1
aI0
aI0
aI33
aI5
aa(lp229
I22
aF41.84284
aI6
aI5
aI2
aI0
aI0
aI11
aI5
aa(lp230
I23
aF20.92142
aI5
aI5
aI0
aI0
aI0
aI0
aI6
aa(lp231
I18
aF43.45218
aI7
aI5
aI1
aI0
aI1
aI0
aI5
aa(lp232
I20
aF46.67086
aI9
aI5
aI1
aI0
aI0
aI26
aI4
aa(lp233
I22
aF12.87472
aI6
aI5
aI1
aI0
aI1
aI0
aI5
aa(lp234
I25
aF11.26538
aI4
aI5
aI1
aI0
aI0
aI171
aI6
aa(lp235
I22
aF12.87472
aI7
aI5
aI0
aI0
aI0
aI0
aI6
aa(lp236
I21
aF17.70274
aI4
aI5
aI1
aI0
aI0
aI124
aI6
aa(lp237
I19
aF22.53076
aI6
aI5
aI1
aI0
aI0
aI28
aI4
aa(lp238
I23
aF41.84284
aI3
aI5
aI1
aI0
aI0
aI53
aI6
aa(lp239
I20
aF16.0934
aI6
aI5
aI1
aI0
aI0
aI0
aI4
aa(lp240
I21
aF16.0934
aI5
aI5
aI1
aI0
aI0
aI233
aI6
aa(lp241
I19
aF28.96812
aI4
aI5
aI1
aI0
aI0
aI0
aI4
aa(lp242
I21
aF20.92142
aI8
aI5
aI1
aI0
aI0
aI4
aI6
aa(lp243
I21
aF20.92142
aI5
aI5
aI1
aI0
aI0
aI0
aI6
aa(lp244
I19
aF38.62416
aI6
aI5
aI0
aI0
aI0
aI43
aI6
aa(lp245
I23
aF80.467
aI7
aI5
aI1
aI0
aI0
aI0
aI6
aa(lp246
I20
aF37.01482
aI9
aI5
aI1
aI0
aI0
aI49
aI6
aa(lp247
I22
aF27.35878
aI7
aI5
aI0
aI0
aI0
aI0
aI2
aa(lp248
I21
aF37.01482
aI4
aI5
aI1
aI0
aI0
aI28
aI5
aa(lp249
I19
aF37.01482
aI7
aI5
aI1
aI0
aI1
aI47
aI4
aa(lp250
I21
aF12.87472
aI5
aI5
aI1
aI0
aI0
aI15
aI5
aa(lp251
I19
aF53.10822
aI8
aI5
aI0
aI0
aI0
aI91
aI6
aa(lp252
I19
aF38.62416
aI5
aI5
aI1
aI0
aI0
aI0
aI4
aa(lp253
I20
aF43.45218
aI4
aI5
aI0
aI0
aI1
aI47
aI6
aa(lp254
I20
aF16.0934
aI7
aI5
aI0
aI0
aI1
aI0
aI5
aa(lp255
I22
aF24.1401
aI8
aI5
aI1
aI0
aI1
aI36
aI5
aa(lp256
I18
aF45.06152
aI5
aI5
aI0
aI0
aI0
aI90
aI6
aa(lp257
I19
aF27.35878
aI5
aI5
aI1
aI0
aI0
aI229
aI6
aa(lp258
I23
aF46.67086
aI5
aI5
aI1
aI0
aI0
aI0
aI6
aa(lp259
I22
aF30.57746
aI9
aI5
aI1
aI0
aI0
aI203
aI6
aa(lp260
I19
aF51.49888
aI7
aI5
aI0
aI0
aI0
aI24
aI3
aa(lp261
I20
aF11.26538
aI6
aI6
aI1
aI0
aI0
aI14
aI6
aa(lp262
I19
aF3.21868
aI5
aI6
aI1
aI0
aI0
aI0
aI6
aa(lp263
I18
aF8.0467
aI4
aI6
aI0
aI0
aI0
aI61
aI6
aa(lp264
I20
aF19.31208
aI4
aI6
aI0
aI0
aI0
aI0
aI6
aa(lp265
I21
aF11.26538
aI6
aI6
aI2
aI0
aI0
aI0
aI6
aa(lp266
I18
aF11.26538
aI4
aI6
aI1
aI0
aI0
aI176
aI6
aa(lp267
I19
aF9.65604
aI4
aI6
aI1
aI0
aI1
aI45
aI4
aa(lp268
I24
aF6.43736
aI4
aI6
aI1
aI0
aI1
aI0
aI3
aa(lp269
I23
aF3.21868
aI5
aI6
aI0
aI0
aI0
aI0
aI5
aa(lp270
I19
aF14.48406
aI7
aI6
aI1
aI0
aI0
aI123
aI5
aa(lp271
I18
aF14.48406
aI4
aI6
aI0
aI0
aI0
aI55
aI6
aa(lp272
I21
aF11.26538
aI7
aI6
aI1
aI0
aI0
aI37
aI6
aa(lp273
I19
aF6.43736
aI4
aI6
aI1
aI0
aI1
aI46
aI6
aa(lp274
I19
aF91.73238
aI8
aI6
aI1
aI0
aI0
aI125
aI6
aa(lp275
I19
aF9.65604
aI5
aI6
aI1
aI0
aI0
aI0
aI6
aa(lp276
I21
aF17.70274
aI7
aI6
aI1
aI0
aI0
aI31
aI5
aa(lp277
I20
aF25.74944
aI8
aI6
aI1
aI0
aI0
aI73
aI6
aa(lp278
I23
aF17.70274
aI5
aI6
aI1
aI0
aI0
aI34
aI6
aa(lp279
I23
aF9.65604
aI5
aI6
aI1
aI0
aI0
aI28
aI6
aa(lp280
I23
aF16.0934
aI2
aI6
aI1
aI0
aI0
aI25
aI4
aa(lp281
I19
aF24.1401
aI6
aI6
aI1
aI0
aI0
aI0
aI6
aa(lp282
I20
aF28.96812
aI8
aI6
aI1
aI0
aI0
aI121
aI6
aa(lp283
I20
aF57.93624
aI4
aI6
aI1
aI0
aI1
aI201
aI6
aa(lp284
I25
aF59.54558
aI6
aI6
aI0
aI0
aI0
aI0
aI3
aa(lp285
I19
aF57.93624
aI7
aI6
aI1
aI0
aI1
aI14
aI6
aa(lp286
I21
aF6.43736
aI7
aI6
aI1
aI0
aI1
aI0
aI4
aa(lp287
I20
aF3.21868
aI5
aI6
aI1
aI0
aI0
aI0
aI5
aa(lp288
I24
aF14.48406
aI5
aI6
aI2
aI0
aI0
aI1
aI6
aa(lp289
I18
aF59.54558
aI7
aI6
aI0
aI0
aI0
aI0
aI1
aa(lp290
I22
aF14.48406
aI6
aI6
aI1
aI0
aI0
aI0
aI6
aa(lp291
I19
aF1.60934
aI9
aI6
aI1
aI1
aI0
aI257
aI4
aa(lp292
I22
aF25.74944
aI6
aI6
aI1
aI0
aI0
aI62
aI5
aa(lp293
I21
aF14.48406
aI5
aI6
aI1
aI0
aI1
aI112
aI5
aa(lp294
I22
aF57.93624
aI7
aI6
aI1
aI0
aI0
aI0
aI3
aa(lp295
I22
aF32.1868
aI4
aI6
aI1
aI0
aI1
aI160
aI6
aa(lp296
I21
aF32.1868
aI4
aI6
aI1
aI0
aI0
aI0
aI5
aa.