(lp0
(lp1
VLauren
p2
aI28
acdatetime
datetime
p3
(S'\x07\xc3\x05\x15\x16\x15\x10\x0b30'
p4
ccopy_reg
_reconstructor
p5
(cdateutil.tz.tz
tzutc
p6
cdatetime
tzinfo
p7
g7
(tRp8
tp9
Rp10
tp11
Rp12
a(lp13
VMichigan State University
p14
aa(lp15
aF53.10822
aS''
p16
aV2016-05-18T20:51:22.149Z
p17
a(lp18
Vhttp://images.gotinder.com/561fa98fa87d95576e8de5e6/a8c4502f-1288-4969-8588-eb6477c4327f.jpg
p19
aVhttp://images.gotinder.com/561fa98fa87d95576e8de5e6/dc02ff9e-95b9-4afb-becc-6ecd6fc75ec3.jpg
p20
aVhttp://images.gotinder.com/561fa98fa87d95576e8de5e6/551d8dee-24b0-48f9-99af-cae61c172759.jpg
p21
aVhttp://images.gotinder.com/561fa98fa87d95576e8de5e6/868df0a9-7fae-43a6-833d-58b69c739a11.jpg
p22
aVhttp://images.gotinder.com/561fa98fa87d95576e8de5e6/7cc93d60-22ed-4f4b-86ef-6fe27cbd133e.jpg
p23
aaa(lp24
VClaudia
p25
aI28
ag3
(S'\x07\xc3\x06\n\x15\x1b\n\x05\xd8\x18'
p26
g5
(g6
g7
g7
(tRp27
tp28
Rp29
tp30
Rp31
a(lp32
VFox College, Oak Lawn, IL
p33
aa(lp34
aF20.92142
ag16
aV2016-06-07T21:01:02.676Z
p35
a(lp36
Vhttp://images.gotinder.com/5753788d3c7c44b8115f9315/91a9185e-9c18-4804-bf23-704efac851fb.jpg
p37
aVhttp://images.gotinder.com/5753788d3c7c44b8115f9315/4f4d32c9-63a9-446d-9e18-5079330c7828.jpg
p38
aVhttp://images.gotinder.com/5753788d3c7c44b8115f9315/01090605-0c6a-4e6b-8a1a-d368a1e89842.jpg
p39
aVhttp://images.gotinder.com/5753788d3c7c44b8115f9315/08bbb0d1-d743-4160-8c3d-00b250ce16b3.jpg
p40
aaa.