(lp0
(lp1
I6
aI18
aF3.21868
aI102
aa(lp2
I5
aI20
aF1379.20438
aI15
aa(lp3
I8
aI19
aF8.0467
aI108
aa(lp4
I5
aI19
aF11.26538
aI176
aa(lp5
I7
aI19
aF51.49888
aI48
aa(lp6
I3
aI19
aF6828.42962
aI62
aa(lp7
I8
aI19
aF1.60934
aI54
aa(lp8
I4
aI19
aF1.60934
aI31
aa(lp9
I6
aI19
aF16.0934
aI305
aa(lp10
I4
aI19
aF3.21868
aI119
aa(lp11
I5
aI19
aF1.60934
aI160
aa(lp12
I5
aI19
aF6599.90334
aI0
aa(lp13
I6
aI18
aF54.71756
aI183
aa(lp14
I5
aI18
aF243.01033999999999
aI18
aa(lp15
I5
aI18
aF49.88954
aI205
aa(lp16
I2
aI110
aF4.82802
aI280
aa(lp17
I6
aI18
aF64.3736
aI34
aa(lp18
I6
aI20
aF19.31208
aI0
aa(lp19
I6
aI19
aF955.94796
aI0
aa(lp20
I3
aI21
aF16.0934
aI22
aa(lp21
I3
aI18
aF16.0934
aI0
aa(lp22
I8
aI18
aF35.40548
aI176
aa(lp23
I5
aI21
aF62.76426
aI296
aa(lp24
I7
aI20
aF1.60934
aI123
aa(lp25
I6
aI18
aF4.82802
aI0
aa(lp26
I8
aI20
aF38.62416
aI53
aa(lp27
I5
aI21
aF30.57746
aI32
aa(lp28
I8
aI19
aF3.21868
aI183
aa(lp29
I6
aI21
aF3.21868
aI75
aa(lp30
I8
aI19
aF3.21868
aI0
aa(lp31
I5
aI20
aF3.21868
aI55
aa(lp32
I6
aI22
aF6.43736
aI141
aa(lp33
I6
aI22
aF3.21868
aI0
aa(lp34
I4
aI25
aF49.88954
aI95
aa(lp35
I4
aI20
aF8.0467
aI75
aa(lp36
I7
aI19
aF3.21868
aI49
aa(lp37
I4
aI18
aF16.0934
aI86
aa(lp38
I6
aI18
aF99.77908
aI195
aa(lp39
I5
aI21
aF37.01482
aI270
aa(lp40
I6
aI19
aF98.16974
aI214
aa(lp41
I5
aI19
aF1.60934
aI46
aa(lp42
I6
aI18
aF70.81096
aI110
aa(lp43
I5
aI18
aF9.65604
aI93
aa(lp44
I6
aI20
aF3.21868
aI79
aa(lp45
I3
aI18
aF37.01482
aI7
aa(lp46
I5
aI18
aF45.06152
aI116
aa(lp47
I8
aI20
aF41.84284
aI220
aa(lp48
I4
aI19
aF19.31208
aI0
aa(lp49
I7
aI19
aF20.92142
aI495
aa(lp50
I5
aI20
aF524.64484
aI35
aa(lp51
I4
aI18
aF16.0934
aI0
aa(lp52
I7
aI20
aF16.0934
aI32
aa(lp53
I5
aI18
aF51.49888
aI290
aa(lp54
I5
aI20
aF14.48406
aI33
aa(lp55
I6
aI19
aF130.35654
aI90
aa(lp56
I5
aI20
aF20.92142
aI36
aa(lp57
I3
aI19
aF1.60934
aI125
aa(lp58
I6
aI19
aF104.6071
aI82
aa(lp59
I6
aI18
aF59.54558
aI17
aa(lp60
I5
aI19
aF3.21868
aI60
aa(lp61
I5
aI19
aF11.26538
aI17
aa(lp62
I3
aI18
aF2780.93952
aI147
aa(lp63
I6
aI20
aF2785.76754
aI0
aa(lp64
I5
aI21
aF2771.28348
aI0
aa(lp65
I4
aI18
aF1150.6781
aI8
aa(lp66
I6
aI19
aF2777.72084
aI0
aa(lp67
I5
aI18
aF2768.0648
aI79
aa(lp68
I8
aI19
aF2779.33018
aI389
aa(lp69
I6
aI24
aF2792.2049
aI231
aa(lp70
I4
aI21
aF2788.98622
aI0
aa(lp71
I6
aI19
aF2776.1115
aI405
aa(lp72
I6
aI19
aF1.60934
aI0
aa(lp73
I5
aI19
aF9.65604
aI343
aa(lp74
I4
aI19
aF59.54558
aI427
aa(lp75
I7
aI20
aF6.43736
aI109
aa(lp76
I6
aI20
aF32.1868
aI77
aa(lp77
I6
aI20
aF8.0467
aI42
aa(lp78
I3
aI23
aF798.23264
aI89
aa(lp79
I6
aI20
aF799.84198
aI0
aa(lp80
I8
aI21
aF796.6233
aI130
aa(lp81
I4
aI19
aF885.137
aI145
aa(lp82
I6
aI18
aF795.01396
aI15
aa(lp83
I5
aI19
aF442.5685
aI43
aa(lp84
I6
aI22
aF799.84198
aI40
aa(lp85
I8
aI20
aF738.68706
aI353
aa(lp86
I8
aI18
aF1110.4446
aI89
aa(lp87
I4
aI22
aF1319.6588
aI21
aa(lp88
I8
aI21
aF70.81096
aI29
aa(lp89
I6
aI19
aF1356.67362
aI167
aa(lp90
I8
aI20
aF941.4639
aI302
aa(lp91
I3
aI23
aF1144.24074
aI79
aa(lp92
I5
aI20
aF1480.5928
aI42
aa(lp93
I5
aI20
aF1366.32966
aI126
aa(lp94
I5
aI21
aF1409.78184
aI30
aa(lp95
I7
aI23
aF1306.78408
aI0
aa(lp96
I7
aI19
aF8.0467
aI43
aa(lp97
I6
aI18
aF35.40548
aI156
aa(lp98
I6
aI19
aF85.29502
aI123
aa(lp99
I14
aI19
aF35.40548
aI219
aa(lp100
I6
aI19
aF38.62416
aI414
aa(lp101
I6
aI20
aF1.60934
aI158
aa(lp102
I6
aI19
aF85.29502
aI41
aa(lp103
I3
aI20
aF12.87472
aI192
aa(lp104
I6
aI25
aF3.21868
aI144
aa(lp105
I6
aI20
aF67.59228
aI71
aa(lp106
I3
aI20
aF416.81906
aI37
aa(lp107
I8
aI20
aF62.76426
aI13
aa(lp108
I6
aI22
aF8.0467
aI65
aa(lp109
I7
aI20
aF8.0467
aI36
aa(lp110
I7
aI19
aF376.58556
aI31
aa(lp111
I4
aI19
aF33.79614
aI26
aa(lp112
I8
aI19
aF11.26538
aI84
aa(lp113
I6
aI20
aF14.48406
aI0
aa(lp114
I4
aI18
aF133.57522
aI69
aa(lp115
I4
aI21
aF12.87472
aI235
aa(lp116
I7
aI20
aF22.53076
aI0
aa(lp117
I6
aI18
aF30.57746
aI38
aa(lp118
I4
aI19
aF20.92142
aI2
aa(lp119
I8
aI19
aF17.70274
aI267
aa(lp120
I5
aI18
aF46.67086
aI328
aa(lp121
I5
aI20
aF28.96812
aI35
aa(lp122
I8
aI19
aF1.60934
aI24
aa(lp123
I6
aI20
aF53.10822
aI195
aa(lp124
I6
aI20
aF263.93176
aI0
aa(lp125
I3
aI18
aF14.48406
aI98
aa(lp126
I8
aI21
aF16.0934
aI49
aa(lp127
I7
aI19
aF12.87472
aI67
aa(lp128
I4
aI19
aF1306.78408
aI40
aa(lp129
I5
aI21
aF25.74944
aI0
aa(lp130
I7
aI18
aF20.92142
aI51
aa(lp131
I9
aI21
aF24.1401
aI44
aa(lp132
I7
aI20
aF16.0934
aI48
aa.