(lp0
(lp1
VLauren
p2
aI28
acdatetime
datetime
p3
(S'\x07\xc3\x05\x15\x16\x15\x10\x0b30'
p4
ccopy_reg
_reconstructor
p5
(cdateutil.tz.tz
tzutc
p6
cdatetime
tzinfo
p7
g7
(tRp8
tp9
Rp10
tp11
Rp12
a(lp13
VMichigan State University
p14
aa(lp15
aF53.10822
aS''
p16
aV2016-05-18T20:51:22.149Z
p17
a(lp18
Vhttp://images.gotinder.com/561fa98fa87d95576e8de5e6/a8c4502f-1288-4969-8588-eb6477c4327f.jpg
p19
aVhttp://images.gotinder.com/561fa98fa87d95576e8de5e6/dc02ff9e-95b9-4afb-becc-6ecd6fc75ec3.jpg
p20
aVhttp://images.gotinder.com/561fa98fa87d95576e8de5e6/551d8dee-24b0-48f9-99af-cae61c172759.jpg
p21
aVhttp://images.gotinder.com/561fa98fa87d95576e8de5e6/868df0a9-7fae-43a6-833d-58b69c739a11.jpg
p22
aVhttp://images.gotinder.com/561fa98fa87d95576e8de5e6/7cc93d60-22ed-4f4b-86ef-6fe27cbd133e.jpg
p23
aaa(lp24
VClaudia
p25
aI28
ag3
(S'\x07\xc3\x06\n\x15\x1b\n\x05\xd8\x18'
p26
g5
(g6
g7
g7
(tRp27
tp28
Rp29
tp30
Rp31
a(lp32
VFox College, Oak Lawn, IL
p33
aa(lp34
aF20.92142
ag16
aV2016-06-07T21:01:02.676Z
p35
a(lp36
Vhttp://images.gotinder.com/5753788d3c7c44b8115f9315/91a9185e-9c18-4804-bf23-704efac851fb.jpg
p37
aVhttp://images.gotinder.com/5753788d3c7c44b8115f9315/4f4d32c9-63a9-446d-9e18-5079330c7828.jpg
p38
aVhttp://images.gotinder.com/5753788d3c7c44b8115f9315/01090605-0c6a-4e6b-8a1a-d368a1e89842.jpg
p39
aVhttp://images.gotinder.com/5753788d3c7c44b8115f9315/08bbb0d1-d743-4160-8c3d-00b250ce16b3.jpg
p40
aaa(lp41
VMegan
p42
aI20
ag3
(S'\x07\xcb\x06\n\x158#\x04\x0f\x10'
p43
g5
(g6
g7
g7
(tRp44
tp45
Rp46
tp47
Rp48
a(lp49
a(lp50
aF46.67086
aVIdk I like books and coffee??
p51
aV2016-06-07T18:02:20.367Z
p52
a(lp53
Vhttp://images.gotinder.com/5725a800badebd873728464f/50b10a54-c7c9-4097-9238-ba58004e2917.jpg
p54
aVhttp://images.gotinder.com/5725a800badebd873728464f/1439bb07-a28e-4803-8f5d-8190115ecaeb.jpg
p55
aVhttp://images.gotinder.com/5725a800badebd873728464f/36fe02c7-6679-4889-9cb4-9612425d7455.jpg
p56
aVhttp://images.gotinder.com/5725a800badebd873728464f/44459746-c4e0-404a-8a0b-de1fd7bebfa9.jpg
p57
aVhttp://images.gotinder.com/5725a800badebd873728464f/b1f735ac-4de0-44f2-ad78-b2a74d7a9ca5.jpg
p58
aaa(lp59
VAnna
p60
aI20
ag3
(S'\x07\xcb\x06\n\x158#\x04&\x80'
p61
g5
(g6
g7
g7
(tRp62
tp63
Rp64
tp65
Rp66
a(lp67
VSan Diego State University
p68
aa(lp69
aF45.06152
aVI just want to find someone to share a Facebook account with. 
p70
aV2016-06-07T20:32:32.608Z
p71
a(lp72
Vhttp://images.gotinder.com/5647ddfd3e4e46371458ebb1/982f86dc-dfb3-4961-8936-f0c65572cd5b.jpg
p73
aVhttp://images.gotinder.com/5647ddfd3e4e46371458ebb1/10ae5144-5498-48f2-8ccb-5a7c5f9bfe73.jpg
p74
aVhttp://images.gotinder.com/5647ddfd3e4e46371458ebb1/61e91bce-aca5-4d73-80eb-1a0db27e686f.jpg
p75
aVhttp://images.gotinder.com/5647ddfd3e4e46371458ebb1/802a7bbe-1e73-4c16-b56d-1b492211fffa.jpg
p76
aVhttp://images.gotinder.com/5647ddfd3e4e46371458ebb1/72536433-c8b7-402c-8656-b09f4d0d5289.jpg
p77
aaa(lp78
VLauren
p79
aI21
ag3
(S'\x07\xca\x06\n\x158#\x04*h'
p80
g5
(g6
g7
g7
(tRp81
tp82
Rp83
tp84
Rp85
a(lp86
VIllinois Institute of Technology
p87
aVCCAC
p88
aa(lp89
VSouth Loop Pet Care
p90
aaF20.92142
aVINFJ scorpio pups kitties bikes booze
p91
aV2016-06-07T20:07:31.929Z
p92
a(lp93
Vhttp://images.gotinder.com/574d207c5144a30a18e7b74c/7653b3c1-f38e-4a3c-866a-07deab3dc837.jpg
p94
aVhttp://images.gotinder.com/574d207c5144a30a18e7b74c/8d3775d2-cdce-443d-aaf6-5f50da20df69.jpg
p95
aVhttp://images.gotinder.com/574d207c5144a30a18e7b74c/d85b5b33-e690-45d6-b80a-e0a88f42401f.jpg
p96
aVhttp://images.gotinder.com/574d207c5144a30a18e7b74c/621b94f3-81fd-4356-898f-eb6ee3de7d4b.jpg
p97
aVhttp://images.gotinder.com/574d207c5144a30a18e7b74c/8eb812e8-ce73-408c-8947-ff4e3f076e94.jpg
p98
aVhttp://images.gotinder.com/574d207c5144a30a18e7b74c/f7f8c4ce-6690-43dd-87c1-d14d6bf39d15.jpg
p99
aaa(lp100
VMeg
p101
aI21
ag3
(S'\x07\xca\x06\n\x158#\x0428'
p102
g5
(g6
g7
g7
(tRp103
tp104
Rp105
tp106
Rp107
a(lp108
VRobert Morris University - Illinois
p109
aVIllinois State University
p110
aa(lp111
VIllinois Girls Lacrosse Association
p112
aaF49.88954
aVInstagram: legmevis\u000a
p113
aV2016-06-05T01:14:14.061Z
p114
a(lp115
Vhttp://images.gotinder.com/52c7919d2efc926e7c001910/ded4882d-74a2-4ca9-87e7-83b3a51152e0.jpg
p116
aVhttp://images.gotinder.com/52c7919d2efc926e7c001910/d91d728a-4f21-4f1d-b6bc-3cf8dd09604e.jpg
p117
aVhttp://images.gotinder.com/52c7919d2efc926e7c001910/df68b05d-053b-4ee4-a34f-8aaf70938878.jpg
p118
aaa(lp119
VRachele
p120
aI20
ag3
(S'\x07\xcb\x06\n\x158#\x04:\x08'
p121
g5
(g6
g7
g7
(tRp122
tp123
Rp124
tp125
Rp126
a(lp127
VHarper College
p128
aa(lp129
aF43.45218
ag16
aV2016-06-07T18:01:41.932Z
p130
a(lp131
Vhttp://images.gotinder.com/57533878060f9a0c190169fa/5bf17709-e82e-4860-8297-4839103fbfe1.jpg
p132
aVhttp://images.gotinder.com/57533878060f9a0c190169fa/d89a9460-12eb-42e2-87c5-eee8aa5fc89c.jpg
p133
aVhttp://images.gotinder.com/57533878060f9a0c190169fa/544dd270-d49c-4198-9753-b5a97e152318.jpg
p134
aVhttp://images.gotinder.com/57533878060f9a0c190169fa/00bb45f8-2d8e-4548-8a08-450fa6dad43c.jpg
p135
aVhttp://images.gotinder.com/57533878060f9a0c190169fa/a42b00af-ee26-4bad-8daf-012f2d4dcbc6.jpg
p136
aVhttp://images.gotinder.com/57533878060f9a0c190169fa/f1e78ba2-387f-4e21-805b-f25709143ae6.jpg
p137
aaa(lp138
VTrisha
p139
aI19
ag3
(S'\x07\xcc\x06\n\x158#\x04A\xd8'
p140
g5
(g6
g7
g7
(tRp141
tp142
Rp143
tp144
Rp145
a(lp146
a(lp147
aF32.1868
aV outgoing, adventurous,  let's talk! :)\u000aCaution : handle with care \u000aIf you're a fuck boy stay in your lane \u000a"If they're not scared to lose you. They're not for you"\u000a\u000a
p148
aV2016-06-07T18:43:38.815Z
p149
a(lp150
Vhttp://images.gotinder.com/54d6981178c65b2748f03523/36ee7368-5937-4984-975e-30b829df1709.jpg
p151
aVhttp://images.gotinder.com/54d6981178c65b2748f03523/e7e29d58-94fe-4028-9393-8c441c6fc5af.jpg
p152
aVhttp://images.gotinder.com/54d6981178c65b2748f03523/e6ef568f-1b3d-474f-a6d4-86dc5a767e43.jpg
p153
aVhttp://images.gotinder.com/54d6981178c65b2748f03523/4e9fb51a-4c02-4d72-8784-c750ececd8b7.jpg
p154
aVhttp://images.gotinder.com/54d6981178c65b2748f03523/313bf35f-4864-40cc-a6fd-ef70f6ce5fde.jpg
p155
aVhttp://images.gotinder.com/54d6981178c65b2748f03523/acadd12c-4df7-4ea9-894f-b6d5cd569f5a.jpg
p156
aaa(lp157
VRobin
p158
aI20
ag3
(S'\x07\xcb\x06\n\x158#\x04E\xc0'
p159
g5
(g6
g7
g7
(tRp160
tp161
Rp162
tp163
Rp164
a(lp165
VNorthern Illinois University
p166
aa(lp167
aF43.45218
aVNursing major\u000aIf you like hot cheetos then I'll probably like you
p168
aV2016-06-07T13:37:42.264Z
p169
a(lp170
Vhttp://images.gotinder.com/5736293f01af3d880bd06a4d/0a40d0b9-ee47-42c8-930f-491555eca64f.jpg
p171
aVhttp://images.gotinder.com/5736293f01af3d880bd06a4d/9bbcb59d-27dc-4b26-8c2b-a18b4fccd741.jpg
p172
aVhttp://images.gotinder.com/5736293f01af3d880bd06a4d/28d7ab13-10cb-4cc8-838e-855bfc648a1b.jpg
p173
aVhttp://images.gotinder.com/5736293f01af3d880bd06a4d/418e5776-c4a7-4804-839b-5df38c0f5c52.jpg
p174
aVhttp://images.gotinder.com/5736293f01af3d880bd06a4d/222c8c21-c747-44bb-83f7-5995fe6749c9.jpg
p175
aaa(lp176
VItzel
p177
aI18
ag3
(S'\x07\xcd\x06\n\x158#\x04M\x90'
p178
g5
(g6
g7
g7
(tRp179
tp180
Rp181
tp182
Rp183
a(lp184
a(lp185
VModel @ Abercrombie Kids
p186
aaF45.06152
aV5'2 I'm down for milkshakes at 3am. I'll beat you at smash bros. I love sushi and I'm a sucker for a good romantic movie. \u000a"Sometimes I feel like I was bred in a lab to help people." 
p187
aV2016-06-07T06:14:46.251Z
p188
a(lp189
Vhttp://images.gotinder.com/56e76c81bc12346e0cd9a564/f1c26f59-d680-48ad-9dad-a92b56d588ed.jpg
p190
aVhttp://images.gotinder.com/56e76c81bc12346e0cd9a564/405b52b0-d6fb-45ee-98a8-ee714451c159.jpg
p191
aVhttp://images.gotinder.com/56e76c81bc12346e0cd9a564/ab4646f1-b557-44ef-91af-1b62c7425832.jpg
p192
aVhttp://images.gotinder.com/56e76c81bc12346e0cd9a564/7f8b4f20-f40b-4e1f-b515-6c4317337ed2.jpg
p193
aVhttp://images.gotinder.com/56e76c81bc12346e0cd9a564/351f0d47-fb34-4401-9d9d-47469d6744c7.jpg
p194
aVhttp://images.gotinder.com/56e76c81bc12346e0cd9a564/105fbdcb-238f-4cc2-a412-99b5dcc7d370.jpg
p195
aaa(lp196
VMelanie
p197
aI22
ag3
(S'\x07\xc9\x06\n\x158#\x04YH'
p198
g5
(g6
g7
g7
(tRp199
tp200
Rp201
tp202
Rp203
a(lp204
a(lp205
VPark Ridge Park District
p206
aaF14.48406
aVMy couch pulls out but I don't \u000a
p207
aV2016-06-07T01:23:44.553Z
p208
a(lp209
Vhttp://images.gotinder.com/513d4c1c945b621c6500036d/648ada86-837b-4a89-90c5-8bfa8b603327.jpg
p210
aVhttp://images.gotinder.com/513d4c1c945b621c6500036d/ea27ad44-5bbd-45b3-85c9-71b9882dc40d.jpg
p211
aVhttp://images.gotinder.com/513d4c1c945b621c6500036d/3ee2e2c8-1efa-4723-8936-8bc0f2b34b78.jpg
p212
aVhttp://images.gotinder.com/513d4c1c945b621c6500036d/1483f735-7513-4e8f-8796-3eb49bffdf65.jpg
p213
aVhttp://images.gotinder.com/513d4c1c945b621c6500036d/0749a147-2415-4d2d-84bb-f4c8d418ba27.jpg
p214
aVhttp://images.gotinder.com/513d4c1c945b621c6500036d/018aa243-d135-4fd4-b5c1-93cea46a1073.jpg
p215
aaa(lp216
VChristina
p217
aI20
ag3
(S'\x07\xcb\x06\n\x158#\x04a\x18'
p218
g5
(g6
g7
g7
(tRp219
tp220
Rp221
tp222
Rp223
a(lp224
VDickinson College
p225
aa(lp226
aF30.57746
aVIm kinda the next Tyra Banks
p227
aV2016-06-07T21:20:04.820Z
p228
a(lp229
Vhttp://images.gotinder.com/5701bcd13e1b6f814555c010/fd83f29a-f361-43e1-80af-6d99af0cb33d.jpg
p230
aVhttp://images.gotinder.com/5701bcd13e1b6f814555c010/6af71550-763b-4da0-9982-f2dc7841cd68.jpg
p231
aVhttp://images.gotinder.com/5701bcd13e1b6f814555c010/867406b5-43b7-4f78-8e1f-c09461abf7c7.jpg
p232
aVhttp://images.gotinder.com/5701bcd13e1b6f814555c010/aa7f4c4a-c76a-43fe-884a-5eb62dea24c8.jpg
p233
aaa(lp234
VMegan
p235
aI21
ag3
(S'\x07\xca\x06\n\x158#\x04h\xe8'
p236
g5
(g6
g7
g7
(tRp237
tp238
Rp239
tp240
Rp241
a(lp242
VIvy Tech Community College
p243
aa(lp244
VCertified Nursing Assistant (CNA) @ Maxim Healthcare
p245
aaF69.20162
aVCurrently in nursing school, future Nurse Midwife. Beatles fanatic. Slightly explicit. Beer and whiskey all the way. I'm pretty sassy, I hate cats, and I live off coffee.\u000aAlso; the wee bebe on IG is in fact my cousin, not daughter.
p246
aV2016-06-07T20:26:28.958Z
p247
a(lp248
Vhttp://images.gotinder.com/56a414126ee6ec5657c8c9b3/0dea4e65-303e-42b6-bdfb-756039ffef2a.jpg
p249
aVhttp://images.gotinder.com/56a414126ee6ec5657c8c9b3/604de473-e2ca-43f6-97b7-ac0539c58e5a.jpg
p250
aVhttp://images.gotinder.com/56a414126ee6ec5657c8c9b3/6f5967f7-4d95-441f-b0fb-900fbd9a7557.jpg
p251
aVhttp://images.gotinder.com/56a414126ee6ec5657c8c9b3/943eb920-de26-4844-801c-4374fde52f68.jpg
p252
aVhttp://images.gotinder.com/56a414126ee6ec5657c8c9b3/7a82501a-b29a-4fea-84e9-a8b84460ba4e.jpg
p253
aVhttp://images.gotinder.com/56a414126ee6ec5657c8c9b3/39b24b61-4421-4567-8c84-79e47aa3db20.jpg
p254
aaa(lp255
VSamantha
p256
aI20
ag3
(S'\x07\xcb\x06\n\x159\x13\x07v('
p257
g5
(g6
g7
g7
(tRp258
tp259
Rp260
tp261
Rp262
a(lp263
a(lp264
aF54.71756
ag16
aV2016-06-07T21:35:02.126Z
p265
a(lp266
Vhttp://images.gotinder.com/54921814c900f93922d30917/8d42bee6-bf37-4a0e-8d64-2a416077c7a6.jpg
p267
aVhttp://images.gotinder.com/54921814c900f93922d30917/c81571f9-84db-4fc5-a495-159ae90e1fb1.jpg
p268
aVhttp://images.gotinder.com/54921814c900f93922d30917/55f1aeec-f0b5-4c91-8400-93d9030242aa.jpg
p269
aVhttp://images.gotinder.com/54921814c900f93922d30917/7a02c7c5-2a5f-4cca-8ddc-e98da3901826.jpg
p270
aaa(lp271
VTammy
p272
aI27
ag3
(S'\x07\xc4\x06\n\x159\x13\x07\x85\xc8'
p273
g5
(g6
g7
g7
(tRp274
tp275
Rp276
tp277
Rp278
a(lp279
VIllinois State University
p280
aa(lp281
aF51.49888
ag16
aV2016-06-07T12:23:52.789Z
p282
a(lp283
Vhttp://images.gotinder.com/5738ec7c86b89b9f29f0e612/42aaf9b9-3472-411c-8738-09883434a429.jpg
p284
aVhttp://images.gotinder.com/5738ec7c86b89b9f29f0e612/d32ba954-6d5f-4333-9cfe-427a00403e65.jpg
p285
aVhttp://images.gotinder.com/5738ec7c86b89b9f29f0e612/1b69fde1-4bfb-4b84-a888-ba7866639dd9.jpg
p286
aVhttp://images.gotinder.com/5738ec7c86b89b9f29f0e612/b8c6f139-c8a0-49e3-8fbc-6677e21f3016.jpg
p287
aVhttp://images.gotinder.com/5738ec7c86b89b9f29f0e612/eb6c96a9-fcb0-4a2e-806d-08350f826f3c.jpg
p288
aaa(lp289
VSamiha
p290
aI19
ag3
(S'\x07\xcc\x06\n\x159\x13\x07\x9d8'
p291
g5
(g6
g7
g7
(tRp292
tp293
Rp294
tp295
Rp296
a(lp297
VUniversity of Illinois at Urbana-Champaign
p298
aa(lp299
aF8.0467
aVIf I swiped right, it's on accident 
p300
aV2016-06-07T21:47:28.681Z
p301
a(lp302
Vhttp://images.gotinder.com/56862fa09708ab9331a9c5d9/0bef8325-d848-4dc0-b757-5da2d1251239.jpg
p303
aVhttp://images.gotinder.com/56862fa09708ab9331a9c5d9/08879ef0-20d7-4d55-8c34-aa257c3f1559.jpg
p304
aaa(lp305
VDina
p306
aI23
ag3
(S'\x07\xc8\x06\n\x159\x13\x07\xac\xd8'
p307
g5
(g6
g7
g7
(tRp308
tp309
Rp310
tp311
Rp312
a(lp313
a(lp314
VPhotographer @ University of Georgia
p315
aaF14.48406
aVLiving/working in Chicago. Former Disney CM. University of Georgia alumni. Photographer. Three-time marathoner. Probably currently eating an avocado. 
p316
aV2016-06-07T18:23:10.071Z
p317
a(lp318
Vhttp://images.gotinder.com/53536ecf8b1b7cde27001037/21e5adb7-8e3c-4391-b406-a7ed8a4244b7.jpg
p319
aVhttp://images.gotinder.com/53536ecf8b1b7cde27001037/148e8ae9-5c3b-4655-8fb2-4a39ecf20c52.jpg
p320
aVhttp://images.gotinder.com/53536ecf8b1b7cde27001037/92410a29-a0e6-40ba-87fc-dd3dce37f475.jpg
p321
aVhttp://images.gotinder.com/53536ecf8b1b7cde27001037/b82e69ea-8946-4c65-b1bb-92d76e0c9bc6.jpg
p322
aVhttp://images.gotinder.com/53536ecf8b1b7cde27001037/d4e532bd-70aa-4c68-9a3d-222043434801.jpg
p323
aaa(lp324
VKatherine
p325
aI19
ag3
(S'\x07\xcc\x06\n\x159\x13\x07\xc4H'
p326
g5
(g6
g7
g7
(tRp327
tp328
Rp329
tp330
Rp331
a(lp332
VUniversity of Minnesota
p333
aa(lp334
VNordstrom
p335
aaF35.40548
ag16
aV2016-06-07T21:38:35.670Z
p336
a(lp337
Vhttp://images.gotinder.com/56cfe2b7e4b93df33ccde1cc/86a85611-63f6-4d14-a420-23392b2beb70.jpg
p338
aVhttp://images.gotinder.com/56cfe2b7e4b93df33ccde1cc/13f48d24-bb15-4379-95ce-8933150307c6.jpg
p339
aVhttp://images.gotinder.com/56cfe2b7e4b93df33ccde1cc/2d37c11e-7a4b-4b8d-8eb8-ce715153ac4f.jpg
p340
aVhttp://images.gotinder.com/56cfe2b7e4b93df33ccde1cc/4b854766-feeb-453c-8a95-cdd999def88f.jpg
p341
aaa(lp342
VStephanie
p343
aI20
ag3
(S'\x07\xcb\x06\n\x159\x13\x07\xd3\xe8'
p344
g5
(g6
g7
g7
(tRp345
tp346
Rp347
tp348
Rp349
a(lp350
VCollege of DuPage
p351
aa(lp352
VArt Teacher @ Young Rembrandts
p353
aaF41.84284
aVLooking for people who like to go out and do fun things! Like cruisin down a backroad kinda fun!
p354
aV2016-06-07T21:56:38.914Z
p355
a(lp356
Vhttp://images.gotinder.com/56f17202ab824ea30dace00e/e156f403-2c32-4046-8970-4658e1ffaa27.jpg
p357
aVhttp://images.gotinder.com/56f17202ab824ea30dace00e/41a06ab6-5b4b-4044-8e88-a519dbd151e3.jpg
p358
aVhttp://images.gotinder.com/56f17202ab824ea30dace00e/f6baee49-32d3-480f-8bbb-1364ec4c1eb0.jpg
p359
aVhttp://images.gotinder.com/56f17202ab824ea30dace00e/c708d11e-52b1-40c1-ac58-e23db3034ce3.jpg
p360
aVhttp://images.gotinder.com/56f17202ab824ea30dace00e/dcfaa893-91e4-4d0c-b2a2-57b04862c703.jpg
p361
aaa(lp362
VGwen
p363
aI19
ag3
(S'\x07\xcc\x06\n\x159\x13\x07\xebX'
p364
g5
(g6
g7
g7
(tRp365
tp366
Rp367
tp368
Rp369
a(lp370
VMarquette University
p371
aa(lp372
aF57.93624
aVMU '19\u000aMajoring in Speech Pathology & Audiology
p373
aV2016-06-07T11:30:36.270Z
p374
a(lp375
Vhttp://images.gotinder.com/56b58a221b3ce4277a89063e/ec40e0df-2241-45a6-8287-adcd85134d84.jpg
p376
aVhttp://images.gotinder.com/56b58a221b3ce4277a89063e/8d42accf-036b-4793-8201-303293369909.jpg
p377
aVhttp://images.gotinder.com/56b58a221b3ce4277a89063e/c565aace-3677-464c-9129-981706890421.jpg
p378
aVhttp://images.gotinder.com/56b58a221b3ce4277a89063e/f0401c41-2711-4af8-848f-879238966145.jpg
p379
aVhttp://images.gotinder.com/56b58a221b3ce4277a89063e/a536793a-1039-4efd-8e77-94d3c1e655bd.jpg
p380
aVhttp://images.gotinder.com/56b58a221b3ce4277a89063e/1639d9c4-a5f4-4431-ac8c-f7367cbfad04.jpg
p381
aaa(lp382
VMarelyn
p383
aI25
ag3
(S'\x07\xc6\x06\n\x159\x13\x07\xfe\xe0'
p384
g5
(g6
g7
g7
(tRp385
tp386
Rp387
tp388
Rp389
a(lp390
a(lp391
aF25.74944
aVInstagram: marelyn_mocino\u000aLmao I'm 19 \u000aPHHHOTO: mmarelyn 
p392
aV2016-06-07T20:53:56.258Z
p393
a(lp394
Vhttp://images.gotinder.com/574fda4327941e1915325140/95bd59c4-126f-4de2-8ead-649eb3f50746.jpg
p395
aVhttp://images.gotinder.com/574fda4327941e1915325140/da19a226-4bef-4110-9422-271515ad3962.jpg
p396
aVhttp://images.gotinder.com/574fda4327941e1915325140/2733bfae-3e14-4f64-a7b5-6fded4db5842.jpg
p397
aVhttp://images.gotinder.com/574fda4327941e1915325140/0d427571-6dba-4577-865e-e1935199571d.jpg
p398
aVhttp://images.gotinder.com/574fda4327941e1915325140/3c53dfb8-e864-448c-848a-1dfa4dd913a3.jpg
p399
aVhttp://images.gotinder.com/574fda4327941e1915325140/3b991541-481b-43ff-99a6-4e91df08b9d9.jpg
p400
aaa(lp401
VMarcelina
p402
aI19
ag3
(S'\x07\xcc\x06\n\x159\x13\x08\x12h'
p403
g5
(g6
g7
g7
(tRp404
tp405
Rp406
tp407
Rp408
a(lp409
VColumbia University in the City of New York
p410
aa(lp411
aF12.87472
aVStudent at Columbia University, EMT on campus, medical researcher, outdoor lover, and Polish speaker! Let's go on an adventure!!
p412
aV2016-06-07T20:55:53.075Z
p413
a(lp414
Vhttp://images.gotinder.com/575625e027e2d70912b7ca02/124e7135-f07a-4d3f-8504-e5bc62347538.jpg
p415
aVhttp://images.gotinder.com/575625e027e2d70912b7ca02/a95d3a0b-244b-4015-8759-6d46e5d63c2b.jpg
p416
aVhttp://images.gotinder.com/575625e027e2d70912b7ca02/276ac5b4-51f9-47c8-8a5c-0296ff5f3184.jpg
p417
aVhttp://images.gotinder.com/575625e027e2d70912b7ca02/6808bc85-405c-4756-88bf-4a841906817d.jpg
p418
aVhttp://images.gotinder.com/575625e027e2d70912b7ca02/7741778d-9ec1-4430-9178-d97b37b732d9.jpg
p419
aVhttp://images.gotinder.com/575625e027e2d70912b7ca02/c346e07a-a41f-4c8e-888e-d3b6f53056c8.jpg
p420
aaa(lp421
VJess
p422
aI21
ag3
(S'\x07\xca\x06\n\x159\x13\x08M\x00'
p423
g5
(g6
g7
g7
(tRp424
tp425
Rp426
tp427
Rp428
a(lp429
a(lp430
aF57.93624
aVI spend a lot of time at the gym and a lot of money on Dunkin Donuts coffee 
p431
aV2016-06-07T18:51:28.776Z
p432
a(lp433
Vhttp://images.gotinder.com/54702ab75eaff3ce67ac9fc6/fdd7762b-ecd0-4b7d-8cab-acf7b2a7c79e.jpg
p434
aVhttp://images.gotinder.com/54702ab75eaff3ce67ac9fc6/43c06f5f-fdac-4ebe-9559-ec07bd07167a.jpg
p435
aVhttp://images.gotinder.com/54702ab75eaff3ce67ac9fc6/f9b4cfa4-14d7-4524-8ca0-15dd82a7c7ef.jpg
p436
aVhttp://images.gotinder.com/54702ab75eaff3ce67ac9fc6/d0c3d533-749f-4e48-99b0-bec32fb63fa9.jpg
p437
aVhttp://images.gotinder.com/54702ab75eaff3ce67ac9fc6/a5996ef4-52ef-48cc-a569-d7ae0e34a161.jpg
p438
aaa(lp439
VKaylee
p440
aI19
ag3
(S'\x07\xcc\x06\n\x159\x13\x08\\\xa0'
p441
g5
(g6
g7
g7
(tRp442
tp443
Rp444
tp445
Rp446
a(lp447
VHigh Point University
p448
aa(lp449
aF25.74944
aV*not a real cop*\u000a
p450
aV2016-06-07T17:17:01.548Z
p451
a(lp452
Vhttp://images.gotinder.com/5673ce947d972eea3a503b7b/1d560f73-7231-4b19-a78a-c9a7b96d458f.jpg
p453
aVhttp://images.gotinder.com/5673ce947d972eea3a503b7b/c6a791c6-9fe3-419e-90aa-c3c6fdb5d164.jpg
p454
aVhttp://images.gotinder.com/5673ce947d972eea3a503b7b/d08baaa9-e2b2-4c2b-9da5-7e66253a268b.jpg
p455
aVhttp://images.gotinder.com/5673ce947d972eea3a503b7b/a12e61c5-c97b-4058-913d-0bd6c42b6893.jpg
p456
aVhttp://images.gotinder.com/5673ce947d972eea3a503b7b/6bf8884a-7a6a-47b9-8e89-ef955d43cdec.jpg
p457
aVhttp://images.gotinder.com/5673ce947d972eea3a503b7b/6613b6a2-940c-4ccf-84ab-e8ae838dd290.jpg
p458
aaa.